target datalayout = "e-m:e-p270:32:32-p271:32:32-p272:64:64-i64:64-i128:128-f80:128-n8:16:32:64-S128"
target triple = "x86_64-pc-linux-gnu"

%struct.test_fixture = type { ptr, ptr }

@.str = private unnamed_addr constant [31 x i8] c"../openssl/test/cmp_ctx_test.c\00", align 1
@.str.16 = private unnamed_addr constant [33 x i8] c"test_CTX_set_get_transfer_cb_arg\00", align 1
@.str.62 = private unnamed_addr constant [17 x i8] c"ERR_peek_error()\00", align 1
@.str.63 = private unnamed_addr constant [2 x i8] c"0\00", align 1
@.str.64 = private unnamed_addr constant [43 x i8] c"setter did not return error on ctx == NULL\00", align 1
@.str.65 = private unnamed_addr constant [43 x i8] c"getter did not return error on ctx == NULL\00", align 1
@.str.66 = private unnamed_addr constant [26 x i8] c"did not get default value\00", align 1
@.str.67 = private unnamed_addr constant [27 x i8] c"setting first value failed\00", align 1
@.str.68 = private unnamed_addr constant [34 x i8] c"set/get first value did not match\00", align 1
@.str.69 = private unnamed_addr constant [28 x i8] c"setting second value failed\00", align 1
@.str.70 = private unnamed_addr constant [27 x i8] c"second set reset the value\00", align 1
@.str.71 = private unnamed_addr constant [35 x i8] c"set/get second value did not match\00", align 1
@.str.72 = private unnamed_addr constant [26 x i8] c"third set reset the value\00", align 1
@.str.73 = private unnamed_addr constant [31 x i8] c"third get gave different value\00", align 1
@.str.74 = private unnamed_addr constant [4 x i8] c"res\00", align 1

; Function Attrs: nounwind uwtable
define internal void @tear_down(ptr noundef %0) #0 {
  %2 = alloca ptr, align 8
  store ptr %0, ptr %2, align 8, !tbaa !15
  %3 = load ptr, ptr %2, align 8, !tbaa !15
  %4 = icmp ne ptr %3, null
  br i1 %4, label %5, label %9

5:                                                ; preds = %1
  %6 = load ptr, ptr %2, align 8, !tbaa !15
  %7 = getelementptr inbounds nuw %struct.test_fixture, ptr %6, i32 0, i32 1
  %8 = load ptr, ptr %7, align 8, !tbaa !17
  call void @OSSL_CMP_CTX_free(ptr noundef %8)
  br label %9

9:                                                ; preds = %5, %1
  %10 = load ptr, ptr %2, align 8, !tbaa !15
  call void @CRYPTO_free(ptr noundef %10, ptr noundef @.str, i32 noundef 25)
  ret void
}

; Function Attrs: nounwind uwtable
define internal i32 @execute_CTX_set_get_transfer_cb_arg(ptr noundef %0) #0 {
  %2 = alloca ptr, align 8
  %3 = alloca ptr, align 8
  %4 = alloca ptr, align 8
  %5 = alloca ptr, align 8
  %6 = alloca ptr, align 8
  %7 = alloca ptr, align 8
  %8 = alloca ptr, align 8
  %9 = alloca ptr, align 8
  %10 = alloca ptr, align 8
  %11 = alloca ptr, align 8
  %12 = alloca ptr, align 8
  %13 = alloca i32, align 4
  store ptr %0, ptr %2, align 8, !tbaa !15
  call void @llvm.lifetime.start.p0(i64 8, ptr %3) #5
  %14 = load ptr, ptr %2, align 8, !tbaa !15
  %15 = getelementptr inbounds nuw %struct.test_fixture, ptr %14, i32 0, i32 1
  %16 = load ptr, ptr %15, align 8, !tbaa !17
  store ptr %16, ptr %3, align 8, !tbaa !11
  call void @llvm.lifetime.start.p0(i64 8, ptr %4) #5
  store ptr @OSSL_CMP_CTX_set_transfer_cb_arg, ptr %4, align 8, !tbaa !50
  call void @llvm.lifetime.start.p0(i64 8, ptr %5) #5
  store ptr @OSSL_CMP_CTX_get_transfer_cb_arg, ptr %5, align 8, !tbaa !50
  call void @llvm.lifetime.start.p0(i64 8, ptr %6) #5
  store ptr inttoptr (i64 1 to ptr), ptr %6, align 8, !tbaa !50
  call void @llvm.lifetime.start.p0(i64 8, ptr %7) #5
  %17 = load ptr, ptr %6, align 8, !tbaa !50
  store ptr %17, ptr %7, align 8, !tbaa !50
  call void @llvm.lifetime.start.p0(i64 8, ptr %8) #5
  store ptr null, ptr %8, align 8, !tbaa !50
  call void @llvm.lifetime.start.p0(i64 8, ptr %9) #5
  store ptr inttoptr (i64 1 to ptr), ptr %9, align 8, !tbaa !50
  call void @llvm.lifetime.start.p0(i64 8, ptr %10) #5
  %18 = load ptr, ptr %9, align 8, !tbaa !50
  store ptr %18, ptr %10, align 8, !tbaa !50
  call void @llvm.lifetime.start.p0(i64 8, ptr %11) #5
  store ptr null, ptr %11, align 8, !tbaa !50
  call void @llvm.lifetime.start.p0(i64 8, ptr %12) #5
  store ptr null, ptr %12, align 8, !tbaa !50
  call void @llvm.lifetime.start.p0(i64 4, ptr %13) #5
  store i32 1, ptr %13, align 4, !tbaa !13
  %19 = call i64 @ERR_peek_error()
  %20 = trunc i64 %19 to i32
  %21 = call i32 @test_int_eq(ptr noundef @.str, i32 noundef 761, ptr noundef @.str.62, ptr noundef @.str.63, i32 noundef %20, i32 noundef 0)
  %22 = icmp ne i32 %21, 0
  br i1 %22, label %24, label %23

23:                                               ; preds = %1
  store i32 0, ptr %13, align 4, !tbaa !13
  br label %24

24:                                               ; preds = %23, %1
  %25 = load ptr, ptr %4, align 8, !tbaa !50
  %26 = load ptr, ptr %7, align 8, !tbaa !50
  %27 = call i32 %25(ptr noundef null, ptr noundef %26)
  %28 = icmp ne i32 %27, 0
  br i1 %28, label %32, label %29

29:                                               ; preds = %24
  %30 = call i64 @ERR_peek_error()
  %31 = icmp eq i64 %30, 0
  br i1 %31, label %32, label %33

32:                                               ; preds = %29, %24
  call void (ptr, i32, ptr, ...) @test_error(ptr noundef @.str, i32 noundef 761, ptr noundef @.str.64)
  store i32 0, ptr %13, align 4, !tbaa !13
  br label %33

33:                                               ; preds = %32, %29
  call void @ERR_clear_error()
  %34 = load ptr, ptr %5, align 8, !tbaa !50
  %35 = call ptr %34(ptr noundef null)
  %36 = icmp ne ptr %35, null
  br i1 %36, label %40, label %37

37:                                               ; preds = %33
  %38 = call i64 @ERR_peek_error()
  %39 = icmp eq i64 %38, 0
  br i1 %39, label %40, label %41

40:                                               ; preds = %37, %33
  call void (ptr, i32, ptr, ...) @test_error(ptr noundef @.str, i32 noundef 761, ptr noundef @.str.65)
  store i32 0, ptr %13, align 4, !tbaa !13
  br label %41

41:                                               ; preds = %40, %37
  call void @ERR_clear_error()
  %42 = load ptr, ptr %5, align 8, !tbaa !50
  %43 = load ptr, ptr %3, align 8, !tbaa !11
  %44 = call ptr %42(ptr noundef %43)
  store ptr %44, ptr %8, align 8, !tbaa !50
  %45 = load ptr, ptr %8, align 8, !tbaa !50
  %46 = icmp eq ptr %45, null
  br i1 %46, label %48, label %47

47:                                               ; preds = %41
  call void (ptr, i32, ptr, ...) @test_error(ptr noundef @.str, i32 noundef 761, ptr noundef @.str.66)
  store i32 0, ptr %13, align 4, !tbaa !13
  br label %48

48:                                               ; preds = %47, %41
  %49 = load ptr, ptr %4, align 8, !tbaa !50
  %50 = load ptr, ptr %3, align 8, !tbaa !11
  %51 = load ptr, ptr %7, align 8, !tbaa !50
  %52 = call i32 %49(ptr noundef %50, ptr noundef %51)
  %53 = icmp ne i32 %52, 0
  br i1 %53, label %55, label %54

54:                                               ; preds = %48
  call void (ptr, i32, ptr, ...) @test_error(ptr noundef @.str, i32 noundef 761, ptr noundef @.str.67)
  store i32 0, ptr %13, align 4, !tbaa !13
  br label %55

55:                                               ; preds = %54, %48
  store ptr null, ptr %6, align 8, !tbaa !50
  %56 = load ptr, ptr %5, align 8, !tbaa !50
  %57 = load ptr, ptr %3, align 8, !tbaa !11
  %58 = call ptr %56(ptr noundef %57)
  store ptr %58, ptr %8, align 8, !tbaa !50
  %59 = load ptr, ptr %8, align 8, !tbaa !50
  %60 = load ptr, ptr %7, align 8, !tbaa !50
  %61 = icmp ne ptr %59, %60
  br i1 %61, label %62, label %63

62:                                               ; preds = %55
  call void (ptr, i32, ptr, ...) @test_error(ptr noundef @.str, i32 noundef 761, ptr noundef @.str.68)
  store i32 0, ptr %13, align 4, !tbaa !13
  br label %63

63:                                               ; preds = %62, %55
  %64 = load ptr, ptr %4, align 8, !tbaa !50
  %65 = load ptr, ptr %3, align 8, !tbaa !11
  %66 = load ptr, ptr %10, align 8, !tbaa !50
  %67 = call i32 %64(ptr noundef %65, ptr noundef %66)
  %68 = icmp ne i32 %67, 0
  br i1 %68, label %70, label %69

69:                                               ; preds = %63
  call void (ptr, i32, ptr, ...) @test_error(ptr noundef @.str, i32 noundef 761, ptr noundef @.str.69)
  store i32 0, ptr %13, align 4, !tbaa !13
  br label %70

70:                                               ; preds = %69, %63
  store ptr null, ptr %9, align 8, !tbaa !50
  %71 = load ptr, ptr %5, align 8, !tbaa !50
  %72 = load ptr, ptr %3, align 8, !tbaa !11
  %73 = call ptr %71(ptr noundef %72)
  store ptr %73, ptr %11, align 8, !tbaa !50
  %74 = load ptr, ptr %11, align 8, !tbaa !50
  %75 = icmp eq ptr %74, null
  br i1 %75, label %76, label %77

76:                                               ; preds = %70
  call void (ptr, i32, ptr, ...) @test_error(ptr noundef @.str, i32 noundef 761, ptr noundef @.str.70)
  store i32 0, ptr %13, align 4, !tbaa !13
  br label %77

77:                                               ; preds = %76, %70
  %78 = load ptr, ptr %11, align 8, !tbaa !50
  %79 = load ptr, ptr %10, align 8, !tbaa !50
  %80 = icmp ne ptr %78, %79
  br i1 %80, label %81, label %82

81:                                               ; preds = %77
  call void (ptr, i32, ptr, ...) @test_error(ptr noundef @.str, i32 noundef 761, ptr noundef @.str.71)
  store i32 0, ptr %13, align 4, !tbaa !13
  br label %82

82:                                               ; preds = %81, %77
  %83 = load ptr, ptr %5, align 8, !tbaa !50
  %84 = load ptr, ptr %3, align 8, !tbaa !11
  %85 = call ptr %83(ptr noundef %84)
  store ptr %85, ptr %12, align 8, !tbaa !50
  %86 = load ptr, ptr %12, align 8, !tbaa !50
  %87 = icmp eq ptr %86, null
  br i1 %87, label %88, label %89

88:                                               ; preds = %82
  call void (ptr, i32, ptr, ...) @test_error(ptr noundef @.str, i32 noundef 761, ptr noundef @.str.72)
  store i32 0, ptr %13, align 4, !tbaa !13
  br label %89

89:                                               ; preds = %88, %82
  %90 = load ptr, ptr %12, align 8, !tbaa !50
  %91 = load ptr, ptr %11, align 8, !tbaa !50
  %92 = icmp ne ptr %90, %91
  br i1 %92, label %93, label %94

93:                                               ; preds = %89
  call void (ptr, i32, ptr, ...) @test_error(ptr noundef @.str, i32 noundef 761, ptr noundef @.str.73)
  store i32 0, ptr %13, align 4, !tbaa !13
  br label %94

94:                                               ; preds = %93, %89
  %95 = call i64 @ERR_peek_error()
  %96 = trunc i64 %95 to i32
  %97 = call i32 @test_int_eq(ptr noundef @.str, i32 noundef 761, ptr noundef @.str.62, ptr noundef @.str.63, i32 noundef %96, i32 noundef 0)
  %98 = icmp ne i32 %97, 0
  br i1 %98, label %100, label %99

99:                                               ; preds = %94
  store i32 0, ptr %13, align 4, !tbaa !13
  br label %100

100:                                              ; preds = %99, %94
  %101 = load i32, ptr %13, align 4, !tbaa !13
  %102 = icmp ne i32 %101, 0
  %103 = zext i1 %102 to i32
  %104 = call i32 @test_true(ptr noundef @.str, i32 noundef 761, ptr noundef @.str.74, i32 noundef %103)
  call void @llvm.lifetime.end.p0(i64 4, ptr %13) #5
  call void @llvm.lifetime.end.p0(i64 8, ptr %12) #5
  call void @llvm.lifetime.end.p0(i64 8, ptr %11) #5
  call void @llvm.lifetime.end.p0(i64 8, ptr %10) #5
  call void @llvm.lifetime.end.p0(i64 8, ptr %9) #5
  call void @llvm.lifetime.end.p0(i64 8, ptr %8) #5
  call void @llvm.lifetime.end.p0(i64 8, ptr %7) #5
  call void @llvm.lifetime.end.p0(i64 8, ptr %6) #5
  call void @llvm.lifetime.end.p0(i64 8, ptr %5) #5
  call void @llvm.lifetime.end.p0(i64 8, ptr %4) #5
  call void @llvm.lifetime.end.p0(i64 8, ptr %3) #5
  ret i32 %104
}

; Function Attrs: nounwind uwtable
define internal i32 @test_CTX_set_get_transfer_cb_arg() #0 {
  %1 = alloca i32, align 4
  %2 = alloca ptr, align 8
  %3 = alloca i32, align 4
  %4 = alloca i32, align 4
  call void @llvm.lifetime.start.p0(i64 8, ptr %2) #5
  %5 = call ptr @set_up(ptr noundef @.str.16)
  store ptr %5, ptr %2, align 8, !tbaa !15
  call void @llvm.lifetime.start.p0(i64 4, ptr %3) #5
  store i32 0, ptr %3, align 4, !tbaa !13
  %6 = load ptr, ptr %2, align 8, !tbaa !15
  %7 = icmp eq ptr %6, null
  br i1 %7, label %8, label %9

8:                                                ; preds = %0
  store i32 0, ptr %1, align 4
  store i32 1, ptr %4, align 4
  br label %18

9:                                                ; preds = %0
  %10 = load ptr, ptr %2, align 8, !tbaa !15
  %11 = icmp ne ptr %10, null
  br i1 %11, label %12, label %16

12:                                               ; preds = %9
  %13 = load ptr, ptr %2, align 8, !tbaa !15
  %14 = call i32 @execute_CTX_set_get_transfer_cb_arg(ptr noundef %13)
  store i32 %14, ptr %3, align 4, !tbaa !13
  %15 = load ptr, ptr %2, align 8, !tbaa !15
  call void @tear_down(ptr noundef %15)
  br label %16

16:                                               ; preds = %12, %9
  %17 = load i32, ptr %3, align 4, !tbaa !13
  store i32 %17, ptr %1, align 4
  store i32 1, ptr %4, align 4
  br label %18

18:                                               ; preds = %16, %8
  call void @llvm.lifetime.end.p0(i64 4, ptr %3) #5
  call void @llvm.lifetime.end.p0(i64 8, ptr %2) #5
  %19 = load i32, ptr %1, align 4
  ret i32 %19
}